target datalayout = "e-m:e-p270:32:32-p271:32:32-p272:64:64-i64:64-i128:128-f80:128-n8:16:32:64-S128"
target triple = "x86_64-pc-linux-gnu"

%struct.boxf = type { %struct.pointf_s, %struct.pointf_s }
%struct.pointf_s = type { double, double }
%struct.Agobj_s = type { %struct.Agtag_s, ptr }
%struct.Agtag_s = type { i32, i64 }
%struct.Agraphinfo_t = type { %struct.Agrec_s, ptr, ptr, %struct.boxf, [4 x %struct.pointf_s], i8, i8, i8, i8, i32, double, double, i16, ptr, ptr, ptr, ptr, i32, ptr, ptr, ptr, ptr, i16, i16, i32, ptr, ptr, ptr, ptr, ptr, i32, ptr, ptr, %struct.nlist_t, ptr, ptr, i32, i32, i8, i8, i32, i32, i32, ptr, ptr, ptr, ptr, i8, i8, i8, i8, i8 }
%struct.Agrec_s = type { ptr, ptr }
%struct.nlist_t = type { ptr, i64 }

; Function Attrs: nounwind uwtable
define internal ptr @gvevent_find_cluster(ptr noundef %0, ptr noundef byval(%struct.boxf) align 8 %1) #0 {
  %3 = alloca ptr, align 8
  %4 = alloca ptr, align 8
  %5 = alloca i32, align 4
  %6 = alloca ptr, align 8
  %7 = alloca %struct.boxf, align 8
  %8 = alloca i32, align 4
  store ptr %0, ptr %4, align 8, !tbaa !56
  call void @llvm.lifetime.start.p0(i64 4, ptr %5) #6
  call void @llvm.lifetime.start.p0(i64 8, ptr %6) #6
  call void @llvm.lifetime.start.p0(i64 32, ptr %7) #6
  store i32 1, ptr %5, align 4, !tbaa !38
  br label %9

9:                                                ; preds = %33, %2
  %10 = load i32, ptr %5, align 4, !tbaa !38
  %11 = load ptr, ptr %4, align 8, !tbaa !56
  %12 = getelementptr inbounds nuw %struct.Agobj_s, ptr %11, i32 0, i32 1
  %13 = load ptr, ptr %12, align 8, !tbaa !58
  %14 = getelementptr inbounds nuw %struct.Agraphinfo_t, ptr %13, i32 0, i32 24
  %15 = load i32, ptr %14, align 4, !tbaa !133
  %16 = icmp sle i32 %10, %15
  br i1 %16, label %17, label %36

17:                                               ; preds = %9
  %18 = load ptr, ptr %4, align 8, !tbaa !56
  %19 = getelementptr inbounds nuw %struct.Agobj_s, ptr %18, i32 0, i32 1
  %20 = load ptr, ptr %19, align 8, !tbaa !58
  %21 = getelementptr inbounds nuw %struct.Agraphinfo_t, ptr %20, i32 0, i32 25
  %22 = load ptr, ptr %21, align 8, !tbaa !134
  %23 = load i32, ptr %5, align 4, !tbaa !38
  %24 = sext i32 %23 to i64
  %25 = getelementptr inbounds ptr, ptr %22, i64 %24
  %26 = load ptr, ptr %25, align 8, !tbaa !56
  %27 = call ptr @gvevent_find_cluster(ptr noundef %26, ptr noundef byval(%struct.boxf) align 8 %1)
  store ptr %27, ptr %6, align 8, !tbaa !56
  %28 = load ptr, ptr %6, align 8, !tbaa !56
  %29 = icmp ne ptr %28, null
  br i1 %29, label %30, label %32

30:                                               ; preds = %17
  %31 = load ptr, ptr %6, align 8, !tbaa !56
  store ptr %31, ptr %3, align 8
  store i32 1, ptr %8, align 4
  br label %107

32:                                               ; preds = %17
  br label %33

33:                                               ; preds = %32
  %34 = load i32, ptr %5, align 4, !tbaa !38
  %35 = add nsw i32 %34, 1
  store i32 %35, ptr %5, align 4, !tbaa !38
  br label %9, !llvm.loop !135

36:                                               ; preds = %9
  %37 = load ptr, ptr %4, align 8, !tbaa !56
  %38 = getelementptr inbounds nuw %struct.Agobj_s, ptr %37, i32 0, i32 1
  %39 = load ptr, ptr %38, align 8, !tbaa !58
  %40 = getelementptr inbounds nuw %struct.Agraphinfo_t, ptr %39, i32 0, i32 3
  %41 = getelementptr inbounds nuw %struct.boxf, ptr %40, i32 0, i32 0
  %42 = getelementptr inbounds nuw %struct.pointf_s, ptr %41, i32 0, i32 0
  %43 = load double, ptr %42, align 8, !tbaa !136
  %44 = getelementptr inbounds nuw %struct.boxf, ptr %7, i32 0, i32 0
  %45 = getelementptr inbounds nuw %struct.pointf_s, ptr %44, i32 0, i32 0
  store double %43, ptr %45, align 8, !tbaa !104
  %46 = load ptr, ptr %4, align 8, !tbaa !56
  %47 = getelementptr inbounds nuw %struct.Agobj_s, ptr %46, i32 0, i32 1
  %48 = load ptr, ptr %47, align 8, !tbaa !58
  %49 = getelementptr inbounds nuw %struct.Agraphinfo_t, ptr %48, i32 0, i32 3
  %50 = getelementptr inbounds nuw %struct.boxf, ptr %49, i32 0, i32 0
  %51 = getelementptr inbounds nuw %struct.pointf_s, ptr %50, i32 0, i32 1
  %52 = load double, ptr %51, align 8, !tbaa !137
  %53 = getelementptr inbounds nuw %struct.boxf, ptr %7, i32 0, i32 0
  %54 = getelementptr inbounds nuw %struct.pointf_s, ptr %53, i32 0, i32 1
  store double %52, ptr %54, align 8, !tbaa !105
  %55 = load ptr, ptr %4, align 8, !tbaa !56
  %56 = getelementptr inbounds nuw %struct.Agobj_s, ptr %55, i32 0, i32 1
  %57 = load ptr, ptr %56, align 8, !tbaa !58
  %58 = getelementptr inbounds nuw %struct.Agraphinfo_t, ptr %57, i32 0, i32 3
  %59 = getelementptr inbounds nuw %struct.boxf, ptr %58, i32 0, i32 1
  %60 = getelementptr inbounds nuw %struct.pointf_s, ptr %59, i32 0, i32 0
  %61 = load double, ptr %60, align 8, !tbaa !138
  %62 = getelementptr inbounds nuw %struct.boxf, ptr %7, i32 0, i32 1
  %63 = getelementptr inbounds nuw %struct.pointf_s, ptr %62, i32 0, i32 0
  store double %61, ptr %63, align 8, !tbaa !102
  %64 = load ptr, ptr %4, align 8, !tbaa !56
  %65 = getelementptr inbounds nuw %struct.Agobj_s, ptr %64, i32 0, i32 1
  %66 = load ptr, ptr %65, align 8, !tbaa !58
  %67 = getelementptr inbounds nuw %struct.Agraphinfo_t, ptr %66, i32 0, i32 3
  %68 = getelementptr inbounds nuw %struct.boxf, ptr %67, i32 0, i32 1
  %69 = getelementptr inbounds nuw %struct.pointf_s, ptr %68, i32 0, i32 1
  %70 = load double, ptr %69, align 8, !tbaa !139
  %71 = getelementptr inbounds nuw %struct.boxf, ptr %7, i32 0, i32 1
  %72 = getelementptr inbounds nuw %struct.pointf_s, ptr %71, i32 0, i32 1
  store double %70, ptr %72, align 8, !tbaa !103
  %73 = getelementptr inbounds nuw %struct.boxf, ptr %1, i32 0, i32 1
  %74 = getelementptr inbounds nuw %struct.pointf_s, ptr %73, i32 0, i32 0
  %75 = load double, ptr %74, align 8, !tbaa !102
  %76 = getelementptr inbounds nuw %struct.boxf, ptr %7, i32 0, i32 0
  %77 = getelementptr inbounds nuw %struct.pointf_s, ptr %76, i32 0, i32 0
  %78 = load double, ptr %77, align 8, !tbaa !104
  %79 = fcmp oge double %75, %78
  br i1 %79, label %80, label %106

80:                                               ; preds = %36
  %81 = getelementptr inbounds nuw %struct.boxf, ptr %7, i32 0, i32 1
  %82 = getelementptr inbounds nuw %struct.pointf_s, ptr %81, i32 0, i32 0
  %83 = load double, ptr %82, align 8, !tbaa !102
  %84 = getelementptr inbounds nuw %struct.boxf, ptr %1, i32 0, i32 0
  %85 = getelementptr inbounds nuw %struct.pointf_s, ptr %84, i32 0, i32 0
  %86 = load double, ptr %85, align 8, !tbaa !104
  %87 = fcmp oge double %83, %86
  br i1 %87, label %88, label %106

88:                                               ; preds = %80
  %89 = getelementptr inbounds nuw %struct.boxf, ptr %1, i32 0, i32 1
  %90 = getelementptr inbounds nuw %struct.pointf_s, ptr %89, i32 0, i32 1
  %91 = load double, ptr %90, align 8, !tbaa !103
  %92 = getelementptr inbounds nuw %struct.boxf, ptr %7, i32 0, i32 0
  %93 = getelementptr inbounds nuw %struct.pointf_s, ptr %92, i32 0, i32 1
  %94 = load double, ptr %93, align 8, !tbaa !105
  %95 = fcmp oge double %91, %94
  br i1 %95, label %96, label %106

96:                                               ; preds = %88
  %97 = getelementptr inbounds nuw %struct.boxf, ptr %7, i32 0, i32 1
  %98 = getelementptr inbounds nuw %struct.pointf_s, ptr %97, i32 0, i32 1
  %99 = load double, ptr %98, align 8, !tbaa !103
  %100 = getelementptr inbounds nuw %struct.boxf, ptr %1, i32 0, i32 0
  %101 = getelementptr inbounds nuw %struct.pointf_s, ptr %100, i32 0, i32 1
  %102 = load double, ptr %101, align 8, !tbaa !105
  %103 = fcmp oge double %99, %102
  br i1 %103, label %104, label %106

104:                                              ; preds = %96
  %105 = load ptr, ptr %4, align 8, !tbaa !56
  store ptr %105, ptr %3, align 8
  store i32 1, ptr %8, align 4
  br label %107

106:                                              ; preds = %96, %88, %80, %36
  store ptr null, ptr %3, align 8
  store i32 1, ptr %8, align 4
  br label %107

107:                                              ; preds = %106, %104, %30
  call void @llvm.lifetime.end.p0(i64 32, ptr %7) #6
  call void @llvm.lifetime.end.p0(i64 8, ptr %6) #6
  call void @llvm.lifetime.end.p0(i64 4, ptr %5) #6
  %108 = load ptr, ptr %3, align 8
  ret ptr %108
}