; Function Attrs: nofree nosync nounwind memory(read, inaccessiblemem: none) uwtable
define internal fastcc ptr @gvevent_find_cluster(ptr noundef readonly captures(ret: address, provenance) %0, ptr noundef readonly byval(%struct.boxf) align 8 captures(none) %1) unnamed_addr #6 {
  %3 = getelementptr inbounds nuw i8, ptr %0, i64 16
  %4 = load ptr, ptr %3, align 8, !tbaa !55
  %5 = getelementptr inbounds nuw i8, ptr %4, i64 236
  %6 = load i32, ptr %5, align 4, !tbaa !115
  %.not22 = icmp slt i32 %6, 1
  br i1 %.not22, label %._crit_edge, label %.lr.ph

.lr.ph:                                           ; preds = %2
  %7 = getelementptr inbounds nuw i8, ptr %4, i64 240
  %8 = load ptr, ptr %7, align 8, !tbaa !116
  %9 = add nuw i32 %6, 1
  %wide.trip.count = zext i32 %9 to i64
  br label %11

10:                                               ; preds = %11
  %indvars.iv.next = add nuw nsw i64 %indvars.iv, 1
  %exitcond.not = icmp eq i64 %indvars.iv.next, %wide.trip.count
  br i1 %exitcond.not, label %._crit_edge, label %11, !llvm.loop !117

11:                                               ; preds = %.lr.ph, %10
  %indvars.iv = phi i64 [ 1, %.lr.ph ], [ %indvars.iv.next, %10 ]
  %12 = getelementptr inbounds nuw ptr, ptr %8, i64 %indvars.iv
  %13 = load ptr, ptr %12, align 8, !tbaa !118
  %14 = tail call fastcc ptr @gvevent_find_cluster(ptr noundef %13, ptr noundef nonnull byval(%struct.boxf) align 8 %1)
  %.not14 = icmp eq ptr %14, null
  br i1 %.not14, label %10, label %.loopexit

._crit_edge:                                      ; preds = %10, %2
  %15 = getelementptr inbounds nuw i8, ptr %4, i64 32
  %16 = load double, ptr %15, align 8, !tbaa !119
  %17 = getelementptr inbounds nuw i8, ptr %1, i64 16
  %18 = load double, ptr %17, align 8, !tbaa !120
  %19 = fcmp ult double %18, %16
  br i1 %19, label %35, label %20

20:                                               ; preds = %._crit_edge
  %21 = getelementptr inbounds nuw i8, ptr %4, i64 56
  %22 = load double, ptr %21, align 8, !tbaa !121
  %23 = getelementptr inbounds nuw i8, ptr %4, i64 40
  %24 = load double, ptr %23, align 8, !tbaa !122
  %25 = getelementptr inbounds nuw i8, ptr %4, i64 48
  %26 = load double, ptr %25, align 8, !tbaa !123
  %27 = load double, ptr %1, align 8, !tbaa !124
  %28 = fcmp ult double %26, %27
  %29 = getelementptr inbounds nuw i8, ptr %1, i64 24
  %30 = load double, ptr %29, align 8
  %31 = fcmp ult double %30, %24
  %or.cond = select i1 %28, i1 true, i1 %31
  %32 = getelementptr inbounds nuw i8, ptr %1, i64 8
  %33 = load double, ptr %32, align 8
  %34 = fcmp ult double %22, %33
  %or.cond19 = select i1 %or.cond, i1 true, i1 %34
  br i1 %or.cond19, label %35, label %.loopexit

35:                                               ; preds = %20, %._crit_edge
  br label %.loopexit

.loopexit:                                        ; preds = %11, %20, %35
  %.0 = phi ptr [ null, %35 ], [ %0, %20 ], [ %14, %11 ]
  ret ptr %.0
}